(lp1
(lp2
I80
aI435
aI283
aI367
aI279
aI133
aI481
aI148
aI653
aI435
aI447
aI394
aI510
aI195
aI515
aI53
aI435
aI311
aI385
aI277
aI552
aI665
aI184
aI258
aI481
aI148
aI653
aI277
aI430
aI683
aI167
aI148
aI653
aI665
aI36
aI143
aI229
aI238
aI665
aI184
aI258
aI267
aI144
aI618
aI221
aI148
aI435
aI609
aI184
aI258
aI640
aI618
aI96
aI57
aI255
aI360
aI229
aI515
aI184
aI258
aI377
aI16
aI468
aI377
aI506
aI586
aa(lp3
I466
aI220
aI674
aI428
aI435
aI451
aI447
aI108
aI147
aI447
aI405
aI199
aI133
aI212
aI283
aI674
aI243
aI552
aI185
aI428
aI428
aI120
aI435
aI0
aI66
aI53
aI195
aI236
aI262
aI466
aI277
aI238
aI435
aI618
aI82
aI96
aI296
aI479
aI96
aI564
aI435
aI55
aI591
aI75
aI53
aI383
aI99
aI74
aI77
aI61
aI74
aI63
aI125
aI96
aI412
aI255
aI207
aI172
aI96
aI435
aI277
aI5
aI564
aI5
aI414
aI356
aI54
aI404
aI195
aI359
aI96
aI435
aI262
aI383
aI364
aa(lp4
I497
aI96
aI435
aI435
aI133
aI212
aI618
aI447
aI237
aI207
aI447
aI598
aI75
aI388
aI98
aI34
aI383
aI53
aI96
aI435
aI446
aI678
aI195
aI540
aI195
aI540
aI570
aI447
aI237
aI207
aI404
aI98
aI249
aI435
aI447
aI435
aI618
aI679
aI447
aI435
aI38
aI207
aI618
aI96
aI107
aI258
aI82
aI435
aI164
aa(lp5
I508
aI119
aI447
aI435
aI133
aI316
aI602
aI50
aI156
aI598
aI528
aI424
aI606
aI608
aI606
aI50
aI82
aI166
aI166
aI301
aI81
aI678
aI96
aI156
aI606
aI68
aI535
aI503
aI437
aI579
aI435
aI353
aI81
aI82
aI277
aI425
aI618
aI96
aI414
aI356
aI54
aI166
aI209
aI96
aI258
aI272
aI5
aI107
aI258
aI414
aI356
aI54
aa(lp6
I581
aI652
aI435
aI212
aI504
aI583
aI444
aI75
aI447
aI435
aI581
aI72
aI512
aI435
aI515
aI509
aI618
aI428
aI548
aI666
aI44
aI277
aI640
aI618
aI96
aI435
aI258
aI172
aI435
aI492
aI96
aI589
aI514
aI13
aI590
aI53
aI383
aI515
aI509
aI435
aI148
aI53
aI383
aI365
aI74
aI63
aI456
aI96
aI306
aI475
aI435
aI447
aI430
aI383
aI114
aI492
aI96
aI288
aI288
aI58
aI63
aa(lp7
I49
aI96
aI435
aI562
aI586
aI337
aI652
aI437
aI407
aI510
aI96
aI435
aI252
aI44
aI435
aI148
aI435
aI148
aI653
aI515
aI150
aI514
aI39
aI383
aI377
aI557
aI89
aI67
aI61
aI74
aI63
aI475
aI26
aI435
aI453
aI246
aI447
aI594
aI161
aI339
aI100
aI435
aI644
aI383
aI12
aI12
aI435
aI644
aI383
aI377
aI89
aI67
aI89
aI446
aI377
aI61
aI74
aI63
aI475
aa(lp8
I439
aI435
aI75
aI545
aI568
aI499
aI508
aI471
aI468
aI554
aI133
aI177
aI509
aI364
aI15
aI435
aI12
aI541
aI148
aI515
aI509
aI435
aI447
aI435
aI430
aI383
aI551
aI492
aI96
aI255
aI360
aI447
aI435
aI383
aI341
aI448
aI534
aI74
aI63
aI475
aI582
aI63
aI61
aI566
aI195
aI492
aI377
aI640
aI435
aI5
aI258
aI14
aI435
aI618
aI96
aa(lp9
I581
aI439
aI435
aI581
aI210
aI477
aI128
aI56
aI521
aI51
aI435
aI684
aI447
aI673
aI220
aI618
aI284
aI439
aI395
aI280
aI439
aI166
aI435
aI678
aI18
aI408
aI676
aI449
aI213
aI509
aI435
aI509
aI435
aI277
aI640
aI435
aI408
aI618
aI96
aI430
aI383
aI492
aI96
aI589
aI514
aI492
aI96
aI589
aI514
aI323
aI96
aI435
aI304
aI96
aI61
aI74
aI63
aI496
aI306
aI106
aI161
aI53
aI166
aI435
aI82
aI277
aI277
aI258
aI14
aI435
aI459
aI508
aa(lp10
I435
aI447
aI447
aI447
aI435
aI505
aI339
aI510
aI117
aI509
aI28
aI132
aI447
aI280
aI150
aI618
aI586
aI195
aI150
aI132
aI431
aI160
aI435
aI12
aI652
aI509
aI674
aI428
aI515
aI618
aI618
aI277
aI447
aI618
aI447
aI28
aI618
aI490
aI239
aI280
aI448
aI448
aI447
aI176
aI554
aI166
aI447
aI39
aI383
aI552
aI69
aI89
aI576
aI74
aI63
aI475
aI447
aI386
aI430
aI383
aa(lp11
I560
aI389
aI77
aI584
aI406
aI215
aI529
aI381
aI505
aI161
aI371
aI215
aI529
aI394
aI10
aI508
aI242
aI487
aI150
aI10
aI364
aI584
aI406
aI250
aI405
aI18
aI364
aI103
aI364
aI560
aI584
aI406
aI487
aI44
aI161
aI10
aI634
aI243
aI487
aI161
aI4
aI122
aI379
aI668
aI152
aI665
aI52
aI485
aI189
aI684
aI459
aI396
aI263
aI487
aI535
aI684
aI379
aI531
aI243
aI541
aI339
aI510
aI263
aI136
aI487
aa(lp12
I380
aI133
aI451
aI23
aI23
aI430
aI383
aI229
aI195
aI684
aI297
aI622
aI161
aI404
aI380
aI133
aI139
aI448
aI23
aI487
aI451
aI23
aI166
aI247
aI166
aI170
aI446
aI404
aI44
aI379
aI235
aI112
aI170
aI161
aI206
aI161
aI166
aI247
aI161
aI170
aI475
aI475
aI161
aI446
aI326
aI235
aI112
aI166
aI161
aI170
aI161
aI206
aI529
aa(lp13
I49
aI389
aI451
aI133
aI37
aI283
aI340
aI549
aI398
aI435
aI133
aI212
aI549
aI398
aI153
aI133
aI212
aI435
aI297
aI549
aI398
aI133
aI404
aI396
aI636
aI212
aI451
aI648
aI283
aI229
aI195
aI435
aI487
aI235
aI112
aI625
aI138
aI161
aI283
aI235
aI112
aa(lp14
I211
aI109
aI114
aI451
aI622
aI95
aI448
aI109
aI211
aI451
aI364
aI270
aI541
aI90
aI611
aI166
aI533
aI533
aI628
aI533
aI628
aI179
aI432
aI285
aI533
aI222
aI533
aI451
aI166
aI451
aI162
aI109
aI344
aI150
aI270
aI364
aI170
aI446
aI64
aI404
aI622
aI161
aI109
aI211
aI478
aI451
aI162
aI448
aI178
aI431
aI485
aI203
aI4
aI292
aI351
aI166
aI622
aI170
aI86
aI252
aa(lp15
I404
aI649
aI177
aI70
aI153
aI177
aI318
aI442
aI446
aI170
aI550
aI487
aI177
aI70
aI649
aI631
aI166
aI487
aI97
aI32
aI448
aI404
aI389
aI437
aI177
aI318
aI374
aI558
aI177
aI162
aI128
aI448
aI621
aI607
aI112
aI161
aI571
aI529
aI206
aI426
aI518
aI529
aI404
aI389
aI487
aI446
aI462
aI89
aI170
aI58
aI551
aI657
aI166
aI101
aI89
aI114
aI204
aI193
aa(lp16
I49
aI220
aI547
aI331
aI131
aI563
aI129
aI563
aI134
aI108
aI410
aI185
aI611
aI161
aI487
aI350
aI465
aI134
aI155
aI129
aI563
aI549
aI161
aI161
aI549
aI446
aI350
aI124
aI649
aI206
aI206
aI549
aI161
aI364
aI195
aI150
aI550
aI540
aI129
aI563
aI508
aI228
aI389
aI364
aI541
aI404
aI206
aI571
aI389
aI607
aI112
aI607
aI112
aI357
aI186
aa(lp17
I586
aI619
aI632
aI102
aI175
aI451
aI195
aI71
aI223
aI4
aI587
aI122
aI487
aI214
aI451
aI275
aI487
aI648
aI4
aI92
aI668
aI379
aI214
aI648
aI305
aI383
aI229
aI247
aI247
aI229
aI44
aI247
aI247
aI523
aI494
aI44
aI275
aI672
aI482
aI343
aI232
aI667
aI33
aI27
aI487
aI396
aa(lp18
I49
aI168
aI137
aI451
aI508
aI435
aI133
aI430
aI442
aI594
aI594
aI49
aI388
aI315
aI524
aI631
aI652
aI435
aI195
aI116
aI437
aI133
aI137
aI478
aI52
aI122
aI553
aI451
aI162
aI166
aI166
aI166
aI487
aI166
aI97
aI161
aI487
aI518
aI529
aI625
aI571
aI206
aI625
aI89
aI206
aI161
aI216
aI110
aI89
aI571
aI161
aI657
aI475
aI39
aI35
aI532
aI204
aI618
aI246
aI505
aI599
aI586
aa(lp19
I233
aI233
aI451
aI180
aI384
aI648
aI85
aI647
aI133
aI384
aI622
aI426
aI435
aI40
aI446
aI68
aI389
aI439
aI180
aI439
aI318
aI318
aI435
aI532
aI426
aI195
aI540
aI297
aI152
aI449
aI396
aI162
aI133
aI675
aI133
aI162
aI426
aI487
aI235
aI112
aI426
aI161
aI206
aI161
aI206
aI161
aI607
aI112
aI161
aI446
aI161
aI446
aI235
aI112
aI206
aI101
aI89
aI204
aI435
aI505
aI487
aI206
aI426
aI446
aI170
aI273
aa(lp20
I83
aI140
aI254
aI407
aI247
aI591
aI340
aI140
aI247
aI195
aI437
aI619
aI487
aI541
aI122
aI411
aI487
aI253
aI594
aI578
aI52
aI672
aI482
aI343
aI275
aI232
aI667
aI343
aI396
aI246
aI505
aI73
aI609
aI619
aI79
aI247
aI140
aI599
aI586
aa(lp21
I505
aI275
aI558
aI177
aI282
aI626
aI383
aI423
aI622
aI161
aI659
aI170
aI407
aI394
aI451
aI18
aI364
aI437
aI558
aI177
aI487
aI622
aI161
aI659
aI487
aI535
aI162
aI622
aI161
aI364
aI541
aI122
aI451
aI166
aI97
aI161
aI162
aI487
aI161
aI622
aI571
aI161
aI622
aI110
aI89
aI657
aI39
aI35
aI204
aI618
aI246
aI505
aI247
aI383
aI532
aI114
aI307
aI599
aI586
aa(lp22
I389
aI133
aI470
aI435
aI206
aI80
aI435
aI505
aI435
aI446
aI446
aI133
aI470
aI657
aI635
aI363
aI508
aI435
aI446
aI571
aI68
aI64
aI404
aI622
aI161
aI204
aI80
aI497
aI622
aI161
aI243
aI680
aI173
aI128
aI182
aI434
aI82
aI435
aI463
aI174
aI364
aI404
aI663
aI170
aI446
aI206
aI161
aI235
aI112
aI622
aI161
aI354
aI89
aI657
aI446
aI133
aI470
aI581
aI635
aI363
aI354
aI89
aI170
aI440
aI542
aI624
aI567
aI657
aI657
aI549
aI623
aI657
aI295
aa(lp23
I675
aI202
aI547
aI684
aI389
aI133
aI202
aI348
aI483
aI201
aI133
aI202
aI281
aI505
aI495
aI373
aI581
aI21
aI483
aI59
aI505
aI163
aI268
aI634
aI336
aI404
aI490
aI239
aI166
aI541
aI684
aI379
aI448
aI374
aI535
aI493
aI62
aI271
aI581
aI21
aI374
aI133
aI418
aI683
aI395
aI508
aa(lp24
I49
aI358
aI370
aI348
aI395
aI348
aI405
aI602
aI602
aI370
aI348
aI395
aI405
aI358
aI200
aI84
aI270
aI654
aI541
aI592
aI395
aI370
aI348
aI602
aI451
aI358
aI78
aI272
aI450
aI461
aI554
aI31
aI370
aI47
aI260
aI541
aI643
aI348
aI195
aI349
aI18
aI595
aI152
aI449
aI200
aI591
aI637
aI200
aI637
aI654
aI541
aI225
aI541
aI451
aI370
aI476
aI165
aI84
aI158
aI389
aI84
aI602
aI418
aI374
aI220
aI418
aI541
aI84
aI420
aI358
aa(lp25
I49
aI389
aI607
aI112
aI537
aI381
aI265
aI549
aI398
aI661
aI405
aI81
aI393
aI380
aI75
aI333
aI133
aI549
aI398
aI340
aI586
aI381
aI537
aI537
aI265
aI79
aI389
aI178
aI649
aI49
aI104
aI154
aI151
aI549
aI398
aI631
aI540
aI607
aI112
aI455
aI333
aI133
aI154
aI151
aI162
aI418
aI549
aI398
aI362
aI115
aI577
aI178
aa(lp26
I389
aI145
aI19
aI381
aI586
aI19
aI145
aI684
aI22
aI537
aI404
aI220
aI1
aI328
aI22
aI230
aI592
aI537
aI108
aI595
aI145
aI396
aI478
aI379
aI214
aI455
aI41
aI24
aI190
aI577
aI649
aI459
aI115
aI379
aI404
aI537
aI328
aI190
aa(lp27
I133
aI75
aI248
aI452
aI452
aI133
aI450
aI619
aI167
aI683
aI683
aI683
aI254
aI133
aI591
aI630
aI89
aI272
aI435
aI446
aI581
aI635
aI363
aI352
aI46
aI449
aI200
aI75
aI452
aI133
aI44
aI648
aI648
aI133
aI83
aI207
aI79
aI326
aI79
aI89
aI435
aI433
aI170
aI206
aI404
aI89
aI435
aI101
aI442
aI300
aI618
aa(lp28
I451
aI656
aI212
aI563
aI89
aI435
aI683
aI451
aI489
aI212
aI89
aI435
aI206
aI435
aI355
aI200
aI478
aI684
aI379
aI92
aI4
aI401
aI451
aI631
aI540
aI451
aI541
aI379
aI92
aI4
aI401
aI563
aI133
aI157
aI637
aI212
aI247
aI247
aI654
aI235
aI112
aI97
aI161
aI502
aI622
aI161
aI235
aI112
aI161
aI227
aI105
aI291
aI291
aI213
aI435
aI361
aI379
aI462
aI89
aI657
aI101
aI492
aI541
aI207
aI618
aa(lp29
I389
aI247
aI178
aI507
aI549
aI398
aI656
aI180
aI389
aI245
aI111
aI313
aI383
aI383
aI18
aI364
aI595
aI541
aI379
aI214
aI166
aI383
aI318
aI383
aa(lp30
I49
aI415
aI207
aI334
aI347
aI435
aI454
aI586
aI275
aI586
aI207
aI113
aI403
aI415
aI309
aI188
aI152
aI415
aI133
aI404
aI459
aI41
aI24
aI404
aI133
aI415
aI459
aI41
aI24
aI275
aI404
aI403
aI404
aI166
aI214
aI403
aI207
aI133
aI378
aI654
aI166
aI683
aI607
aI455
aI309
aa(lp31
I505
aI389
aI544
aI396
aI312
aI558
aI390
aI247
aI128
aI448
aI108
aI574
aI655
aI665
aI191
aI578
aI379
aI128
aI448
aI672
aI482
aI343
aI667
aI400
aI343
aI505
aI396
aI451
aI508
aI305
aI9
aI448
aI247
aI396
aI312
aa(lp32
I451
aI8
aI460
aI391
aI299
aI619
aI340
aI247
aI195
aI121
aI336
aI166
aI541
aI684
aI379
aI648
aI573
aI573
aI79
aI247
aI21
aI383
aI684
aI379
aI672
aI482
aI343
aI275
aI232
aI667
aI33
aI531
aI505
aI396
aa(lp33
I340
aI218
aI619
aI347
aI19
aI585
aI290
aI19
aI431
aI478
aI92
aI4
aI370
aI671
aI578
aI379
aI672
aI482
aI343
aI667
aI232
aI33
aI531
aI505
aI396
aI347
aI585
aI383
aa(lp34
I389
aI546
aI279
aI619
aI546
aI421
aI399
aI294
aI167
aI546
aI364
aI15
aI396
aI389
aI207
aI630
aI619
aI294
aI142
aI510
aI578
aI379
aI128
aI448
aI672
aI482
aI343
aI232
aI667
aI33
aI27
aI505
aI396
aI482
aI275
aI381
aI320
aI192
aI482
aI275
aI546
aa(lp35
I432
aI389
aI275
aI619
aI458
aI380
aI555
aI458
aI380
aI648
aI448
aI364
aI364
aI397
aI4
aI292
aI541
aI379
aI655
aI665
aI191
aI578
aI379
aI672
aI482
aI343
aI501
aI232
aI667
aI343
aI33
aI27
aI343
aI541
aI396
aI648
aI619
aI383
aI79
aa(lp36
I389
aI287
aI593
aI380
aI603
aI278
aI629
aI619
aI603
aI574
aI574
aI287
aI153
aI603
aI655
aI665
aI191
aI578
aI379
aI128
aI448
aI672
aI482
aI343
aI232
aI667
aI343
aI505
aI396
aI648
aI619
aI396
aI274
aI448
aI247
aI229
aI166
aa(lp37
I207
aI549
aI395
aI619
aI340
aI633
aI439
aI395
aI684
aI247
aI247
aI549
aI247
aI550
aI389
aI207
aI511
aI549
aI398
aI451
aI44
aI540
aI379
aI141
aI672
aI482
aI343
aI232
aI667
aI541
aI396
aI448
aI404
aI395
aI247
aI79
aI247
aI631
aI523
aI494
aI631
aa(lp38
I233
aI404
aI451
aI619
aI345
aI457
aI269
aI600
aI645
aI297
aI541
aI684
aI379
aI275
aI505
aI487
aI166
aI671
aI544
aI513
aI275
aI672
aI482
aI343
aI232
aI667
aI343
aI517
aI531
aI505
aI207
aI17
aI639
aI482
aI275
aI451
aI482
aI275
aI159
aI586
aI305
aI404
aI166
aI79
aI422
aa(lp39
I329
aI166
aI413
aI166
aI133
aI508
aI519
aI376
aI435
aI330
aI483
aI428
aI15
aI200
aI591
aI329
aI487
aI275
aI451
aI404
aI655
aI665
aI191
aI275
aI672
aI482
aI343
aI275
aI501
aI232
aI667
aI33
aI531
aI343
aI246
aI505
aI396
aI417
aI413
aI166
aI133
aI166
aI275
aI329
aI305
aI456
aI141
aa(lp40
I586
aI49
aI541
aI275
aI619
aI316
aI388
aI366
aI128
aI530
aI87
aI275
aI224
aI541
aI480
aI619
aI264
aI530
aI319
aI443
aI597
aI87
aI396
aI659
aI522
aI634
aI230
aI152
aI196
aI196
aI396
aI343
aI195
aI595
aI372
aI264
aI396
aI404
aI379
aI572
aI122
aI646
aI665
aI191
aI578
aI379
aI128
aI448
aI672
aI482
aI343
aI672
aI429
aI667
aI343
aI451
aI305
aI459
aI667
aI343
aI224
aI541
aI396
aI277
aI292
aI379
aI559
aI467
aa(lp41
I395
aI616
aI541
aI619
aI457
aI294
aI207
aI126
aI383
aI619
aI45
aI626
aI259
aI91
aI379
aI531
aI672
aI482
aI343
aI232
aI667
aI531
aI396
aI294
aI207
aI79
aI581
aI305
aI166
aI79
aa(lp42
I395
aI49
aI404
aI448
aI619
aI133
aI244
aI383
aI52
aI379
aI451
aI19
aI133
aI19
aI133
aI619
aI122
aI195
aI114
aI523
aI494
aI114
aI247
aI114
aI538
aI195
aI466
aI11
aI133
aI591
aI569
aI200
aI75
aI281
aI541
aI578
aI379
aI482
aI275
aI667
aI343
aI33
aI531
aI505
aI396
aI619
aI94
aI79
aI229
aI247
aa(lp43
I233
aI389
aI549
aI398
aI21
aI619
aI511
aI340
aI451
aI233
aI166
aI15
aI152
aI449
aI451
aI404
aI541
aI379
aI578
aI379
aI672
aI482
aI343
aI275
aI459
aI667
aI232
aI343
aI33
aI531
aI246
aI505
aI396
aI379
aI141
aI128
aI448
aI21
aI448
aI166
aI21
aI448
aI166
aa(lp44
I318
aI133
aI619
aI340
aI452
aI133
aI198
aI491
aI198
aI31
aI389
aI654
aI257
aI432
aI30
aI650
aI650
aI541
aI169
aI314
aI133
aI162
aI541
aI439
aI404
aI631
aI286
aI234
aI76
aI448
aI325
aI578
aI379
aI482
aI275
aI672
aI667
aI343
aI500
aI246
aI541
aI208
aI303
aI396
aI436
aI586
aI641
aI561
aI305
aI452
aI133
aI682
aI620
aI166
aI395
aI485
aI686
aI52
aI379
aI665
aa(lp45
I395
aI266
aI543
aI261
aI619
aI266
aI195
aI266
aI629
aI261
aI543
aI261
aI103
aI642
aI372
aI364
aI541
aI578
aI379
aI672
aI482
aI343
aI667
aI343
aI396
aI541
aI543
aI212
aI261
aI229
aI261
aI670
aI670
aI629
aI261
aI658
aa(lp46
I505
aI376
aI148
aI653
aI435
aI487
aI205
aI298
aI205
aI488
aI409
aI535
aI87
aI684
aI445
aI505
aI195
aI3
aI328
aI195
aI87
aI451
aI451
aI87
aI445
aI205
aI36
aI143
aI595
aI594
aI594
aI612
aI60
aI298
aI148
aI653
aI580
aI36
aI143
aI217
aI205
aI217
aI246
aI541
aI298
aI298
aI148
aI653
aI36
aI143
aI580
aI488
aI681
aI472
aI29
aI2
aI42
aI445
aI652
aI435
aI171
aI601
aI135
aI308
aI246
aI346
aI580
aI205
aI302
aI205
aI459
aI604
aI459
aI638
aI500
aI149
aI296
aI148
aI651
aI681
aI486
aI29
aI2
aI42
aa(lp47
I355
aI355
aI389
aI653
aI148
aI435
aI219
aI327
aI181
aI181
aI183
aI530
aI428
aI148
aI435
aI194
aI509
aI488
aI29
aI536
aI614
aI355
aI540
aI100
aI435
aI607
aI674
aI100
aI148
aI653
aI607
aI423
aI148
aI653
aI481
aI488
aI100
aI435
aI73
aI488
aI423
aI375
aI148
aI653
aI412
aI435
aI322
aI473
aI258
aI127
aI148
aI653
aI481
aI276
aI195
aa(lp48
I49
aI368
aI441
aI234
aI382
aI131
aI148
aI653
aI682
aI438
aI148
aI653
aI435
aI652
aI371
aI205
aI627
aI209
aI409
aI468
aI187
aI306
aI435
aI556
aI410
aI610
aI185
aI626
aI505
aI481
aI332
aI166
aI626
aI505
aI468
aI416
aI205
aI205
aI527
aI591
aI187
aI484
aI128
aI530
aI247
aI336
aI404
aI36
aI143
aI487
aI665
aI205
aI205
aI205
aI662
aI675
aI316
aI662
aI654
aI247
aI133
aI247
aa(lp49
I586
aI389
aI82
aI148
aI435
aI444
aI427
aI481
aI148
aI653
aI650
aI508
aI228
aI611
aI321
aI321
aI540
aI594
aI258
aI238
aI339
aI498
aI123
aI464
aI596
aI684
aI226
aI596
aI669
aI678
aI289
aI631
aI286
aI133
aI133
aI364
aI355
aI148
aI653
aI25
aI617
aI615
aI48
aI184
aI509
aI258
aI324
aI258
aI338
aI685
aI684
aI684
aI258
aI195
aI596
aI317
aI565
aI240
aI474
aI669
aI684
aI195
aI148
aI653
aI510
aa(lp50
I369
aI166
aI228
aI660
aI456
aI148
aI125
aI435
aI130
aI613
aI148
aI653
aI256
aI7
aI435
aI618
aI481
aI241
aI20
aI229
aI371
aI677
aI6
aI498
aI88
aI488
aI29
aI195
aI536
aI150
aI59
aI570
aI481
aI148
aI653
aI348
aI396
aI448
aI197
aI107
aI258
aI435
aI80
aI402
aI251
aI488
aI29
aI631
aI44
aI488
aI43
aI481
aI653
aI387
aI481
aI664
aa(lp51
I516
aI419
aI118
aI525
aI490
aI239
aI166
aI567
aI293
aI539
aI435
aI68
aI364
aI674
aI556
aI435
aI148
aI653
aI310
aI549
aI398
aI364
aI140
aI516
aI419
aI525
aI490
aI239
aI75
aI231
aI335
aI392
aI161
aI100
aI342
aI539
aI435
aI516
aI419
aI622
aI575
aI520
aI539
aI435
aI172
aI82
aI148
aI93
aI622
aI130
aI14
aI469
aI321
aI588
aI100
aI148
aI435
aI98
aI148
aI146
aI526
aI605
aI65
aa.