(lp1
V\u0430
aV\u0430\u0433\u0430
p2
aV\u0430\u043b\u043e
p3
aV\u0430\u043b\u043b\u043e
p4
aV\u0431\u043e\u043b\u044c\u0448\u0435
p5
aV\u0431\u043e\u043b\u044c\u0448\u043e\u0435
p6
aV\u0431\u043e\u043b\u044c\u0448\u0443\u044e
p7
aV\u0431\u0443\u0434\u0435\u0442
p8
aV\u0431\u0443\u0434\u0435\u0442\u0435
p9
aV\u0431\u0443\u0434\u0443
p10
aV\u0431\u044b
p11
aV\u0431\u044b\u043b
p12
aV\u0431\u044b\u043b\u0430
p13
aV\u0431\u044b\u043b\u0438
p14
aV\u0431\u044b\u043b\u043e
p15
aV\u0432
aV\u0432\u0430\u043c
p16
aV\u0432\u0430\u0441
p17
aV\u0432\u0435\u0440\u043d\u043e
p18
aV\u0432\u043e\u0431\u0449\u0435\u043c
p19
aV\u0432\u043e\u0437\u043c\u043e\u0436\u043d\u043e
p20
aV\u0432\u043e\u0437\u043c\u043e\u0436\u043d\u043e\u0441\u0442\u0438
p21
aV\u0432\u043e\u043f\u0440\u043e\u0441
p22
aV\u0432\u043e\u0441\u043a\u0440\u0435\u0441\u0435\u043d\u044c\u0435
p23
aV\u0432\u043e\u0442
p24
aV\u0432\u0441\u0435
p25
aV\u0432\u0441\u0435\u0433\u043e
p26
aV\u0432\u0441\u0451
p27
aV\u0432\u0442\u043e\u0440\u043e\u0439
p28
aV\u0432\u0442\u043e\u0440\u044b\u0435
p29
aV\u0432\u044b
p30
aV\u0432\u044b\u0445\u043e\u0434\u043d\u043e\u0439
p31
aV\u0432\u044b\u0445\u043e\u0434\u043d\u044b\u0435
p32
aV\u0434\u0430
p33
aV\u0434\u043e
p34
aV\u0434\u043e\u0431\u0440\u043e\u0433\u043e
p35
aV\u0434\u043e\u0431\u0440\u044b\u0439
p36
aV\u0434\u043e\u043f\u0443\u0441\u0442\u0438\u043c
p37
aV\u0434\u0440\u0443\u0433\u043e\u0439
p38
aV\u0434\u0440\u0443\u0433\u043e\u043c
p39
aV\u0434\u0443\u043c\u0430\u044e
p40
aV\u0435\u0433\u043e
p41
aV\u0435\u0441\u043b\u0438
p42
aV\u0435\u0441\u0442\u0435\u0441\u0442\u0432\u0435\u043d\u043d\u043e
p43
aV\u0435\u0441\u0442\u044c
p44
aV\u0435\u0449\u0435
p45
aV\u0437\u0430
p46
aV\u0437\u0432\u043e\u043d\u043e\u043a
p47
aV\u0437\u0434\u0440\u0430\u0432\u0441\u0442\u0432\u0443\u0439\u0442\u0435
p48
aV\u0437\u043d\u0430\u0435\u0442\u0435
p49
aV\u0437\u043d\u0430\u0447\u0438\u0442
p50
aV\u0438
aV\u0438\u0434\u0435\u0435
p51
aV\u0438\u0437\u0432\u0438\u043d\u0438\u0442\u0435
p52
aV\u0438\u043b\u0438
p53
aV\u0438\u043c\u0435\u0435\u0442
p54
aV\u0438\u043c\u0435\u043b
p55
aV\u0438\u043c\u0435\u043b\u0430
p56
aV\u0438\u043c\u0435\u0442\u044c
p57
aV\u0438\u043c\u0435\u044e\u0442
p58
aV\u043a
aV\u043a\u0430\u0436\u0434\u044b\u0439
p59
aV\u043a\u0430\u043a
p60
aV\u043a\u0430\u043a\u0430\u044f
p61
aV\u043a\u0430\u043a\u043e\u0435
p62
aV\u043a\u0430\u043a\u043e\u0439
p63
aV\u043a\u043e\u043d\u0435\u0447\u043d\u043e
p64
aV\u043a\u043e\u043f\u0435\u0435\u043a
p65
aV\u043a\u043e\u043f\u0435\u0439\u043a\u0430
p66
aV\u043a\u043e\u043f\u0435\u0439\u043a\u0438
p67
aV\u043a\u043e\u043f\u0435\u0439\u043a\u0443
p68
aV\u043a\u043e\u0440\u043e\u0442\u043a\u043e
p69
aV\u043a\u043e\u0442\u043e\u0440\u044b\u0439
p70
aV\u043b\u0430\u0434\u043d\u043e
p71
aV\u043b\u0435\u0433\u0447\u0435
p72
aV\u043b\u0443\u0447\u0448\u0435
p73
aV\u043b\u044e\u0431\u043e\u0439
p74
aV\u043b\u044e\u0431\u043e\u043c
p75
aV\u043c\u0430\u043b\u043e
p76
aV\u043c\u0435\u043d\u044f
p77
aV\u043c\u043d\u043e\u0433\u043e
p78
aV\u043c\u043e\u0433\u0443
p79
aV\u043c\u043e\u0433\u0443\u0442
p80
aV\u043c\u043e\u0435
p81
aV\u043c\u043e\u0436\u0435\u0442
p82
aV\u043c\u043e\u0436\u0435\u0442\u0435
p83
aV\u043c\u043e\u0436\u043d\u043e
p84
aV\u043c\u043e\u0438
p85
aV\u043c\u043e\u0439
p86
aV\u043c\u043e\u044e
p87
aV\u043c\u043e\u044f
p88
aV\u043c\u043e\u0451
p89
aV\u043d\u0430
p90
aV\u043d\u0435
p91
aV\u043d\u0435\u0432\u0430\u0436\u043d\u043e
p92
aV\u043d\u0435\u043f\u043e\u0441\u0440\u0435\u0434\u0441\u0442\u0432\u0435\u043d\u043d\u043e
p93
aV\u043d\u0435\u0442
p94
aV\u043d\u0438
p95
aV\u043d\u0438\u043a\u0430\u043a\u0438\u0445
p96
aV\u043d\u043e
p97
aV\u043d\u0443
p98
aV\u043d\u0443\u0436\u043d\u043e
p99
aV\u043e\u0431\u0440\u0430\u0437\u043e\u043c
p100
aV\u043e\u0431\u0449\u0435\u043c
p101
aV\u043e\u0436\u0438\u0434\u0430\u043d\u0438\u0435
p102
aV\u043e\u043d
p103
aV\u043e\u0442
p104
aV\u043e\u0442\u043f\u0440\u0430\u0432\u043b\u0435\u043d\u0438\u044f
p105
aV\u043f\u0435\u0440\u0432\u044b\u0435
p106
aV\u043f\u0435\u0440\u0432\u044b\u0439
p107
aV\u043f\u0435\u0440\u0435
p108
aV\u043f\u0435\u0440\u0435\u0434
p109
aV\u043f\u043e
p110
aV\u043f\u043e\u0434\u0441\u043a\u0430\u0436\u0438\u0442\u0435
p111
aV\u043f\u043e\u0436\u0430\u043b\u0443\u0439\u0441\u0442\u0430
p112
aV\u043f\u043e\u043c\u043e\u0447\u044c
p113
aV\u043f\u043e\u043d\u044f\u043b
p114
aV\u043f\u043e\u043d\u044f\u043b\u0430
p115
aV\u043f\u043e\u043d\u044f\u0442\u043d\u043e
p116
aV\u043f\u043e\u0441\u043b\u0435
p117
aV\u043f\u043e\u0442\u043e\u043c
p118
aV\u043f\u0440\u0430\u043a\u0442\u0438\u0447\u0435\u0441\u043a\u0438
p119
aV\u043f\u0440\u0435\u0434\u043f\u043e\u043b\u043e\u0436\u0438\u043c
p120
aV\u043f\u0440\u0438
p121
aV\u043f\u0440\u0438\u043c\u0435\u0440\u043d\u043e
p122
aV\u043f\u0440\u0438\u043d\u0446\u0438\u043f\u0435
p123
aV\u043f\u0440\u043e\u0431\u043b\u0435\u043c\u0430\u0442\u0438\u0447\u043d\u043e
p124
aV\u043f\u0440\u043e\u0441\u0442\u043e
p125
aV\u043f\u044f\u0442\u043e\u0435
p126
aV\u0440\u0435\u0430\u043b\u044c\u043d\u043e
p127
aV\u0440\u0443\u0431\u043b\u0435\u0439
p128
aV\u0440\u0443\u0431\u043b\u044c
p129
aV\u0441
aV\u0441\u0430\u043c\u043e\u0435
p130
aV\u0441\u0430\u043c\u044b\u0435
p131
aV\u0441\u0432\u0438\u0434\u0430\u043d\u0438\u044f
p132
aV\u0441\u0435\u0439\u0447\u0430\u0441
p133
aV\u0441\u043a\u0430\u0436\u0435\u043c
p134
aV\u0441\u043a\u0430\u0436\u0438\u0442\u0435
p135
aV\u0441\u043a\u0430\u0437\u0430\u0442\u044c
p136
aV\u0441\u043b\u043e\u0436\u043d\u0435\u0435
p137
aV\u0441\u043b\u0443\u0447\u0430\u0435
p138
aV\u0441\u043b\u0443\u0447\u0430\u0439
p139
aV\u0441\u043b\u0443\u0448\u0430\u044e
p140
aV\u0441\u043c\u043e\u0433\u0443
p141
aV\u0441\u043c\u043e\u0436\u0435\u043c
p142
aV\u0441\u043c\u044b\u0441\u043b\u0435
p143
aV\u0441\u043e\u0431\u0441\u0442\u0432\u0435\u043d\u043d\u043e
p144
aV\u0441\u043e\u0432\u0435\u0440\u0448\u0435\u043d\u043d\u043e
p145
aV\u0441\u043e\u0436\u0430\u043b\u0435\u043d\u0438\u044e
p146
aV\u0441\u043e\u043e\u0442\u0432\u0435\u0442\u0441\u0442\u0432\u0435\u043d\u043d\u043e
p147
aV\u0441\u043e\u0440\u043e\u043a
p148
aV\u0441\u043f\u0430\u0441\u0438\u0431\u043e
p149
aV\u0442\u0430\u043a\u0430\u044f
p150
aV\u0442\u0430\u043a\u043e\u0432\u0430
p151
aV\u0442\u0430\u043a\u043e\u0439
p152
aV\u0442\u0430\u043c
p153
aV\u0442\u0435\u043c
p154
aV\u0442\u043e
p155
aV\u0442\u043e\u043b\u044c\u043a\u043e
p156
aV\u0442\u043e\u043c
p157
aV\u0442\u0440\u043e\u0435
p158
aV\u0443
aV\u0443\u0433\u0443
p159
aV\u0443\u0436
p160
aV\u0444\u0435\u0432\u0440\u0430\u043b\u044f
p161
aV\u0445\u043e\u0442\u0435\u0442\u044c
p162
aV\u0445\u043e\u0442\u0438\u0442\u0435
p163
aV\u0445\u043e\u0442\u044f
p164
aV\u0445\u043e\u0447\u0443
p165
aV\u0447\u0430\u0441\u0442\u043d\u043e\u0441\u0442\u0438
p166
aV\u0447\u0435\u043c
p167
aV\u0447\u0435\u0442\u0432\u0435\u0440\u0442\u043e\u0435
p168
aV\u0447\u0438\u0441\u043b\u0430\u0445
p169
aV\u0447\u0438\u0441\u043b\u043e
p170
aV\u0447\u0442\u043e
p171
aV\u044d
aV\u044d\u0442\u043e
p172
aV\u044f
aV\u044f\u043d\u0432\u0430\u0440\u044f
p173
aV\u044f\u0441\u043d\u043e
p174
a.