(dp1
V\u0440\u0430\u0437\u043d\u0438\u0446\u0430
p2
I0
sV\u0441\u0435\u0441\u0442\u044c
p3
I1
sV\u0442\u043e\u0447\u043a\u0430
p4
I2
sV\u043d\u043e\u0440\u043c\u0430\u043b\u044c\u043d\u044b\u0439
p5
I3
sV\u043b\u0438\u043d\u0438\u044f
p6
I4
sV\u043f\u0430\u0441\u0441\u0430\u0436\u0438\u0440
p7
I5
sV\u0437\u0430\u0440\u0435\u0433\u0438\u0441\u0442\u0440\u0438\u0440\u043e\u0432\u0430\u0442\u044c
p8
I6
sV\u043f\u043e\u043b\u0443\u0447\u0430\u0442\u044c
p9
I7
sV\u043a\u0430
p10
I8
sV\u044d\u043b\u0435\u043a\u0442\u0440\u0438\u0447\u0438\u043a\u0430
p11
I9
sV\u043c\u0430\u0440\u0442
p12
I10
sV\u043f\u043e\u0436\u0430\u0442\u044c
p13
I11
sV\u0440\u043e\u0441\u0441\u0438\u044f
p14
I12
sV\u0432\u0437\u0432\u0440\u0430\u0442\u0430
p15
I13
sV\u043e\u0444\u043e\u0440\u043c\u043b\u044f\u0442\u044c\u0441\u044f
p16
I14
sV\u043e\u043b\u044c\u0433\u0430
p17
I15
sV\u0433\u043b\u0430\u0432\u043d\u0430
p18
I16
sV\u043f\u043e\u043f
p19
I17
sV\u043b\u0430\u0434\u043d\u044b\u0439
p20
I18
sV\u0442\u0432\u0435\u0440\u044c
p21
I19
sV\u0441\u043e\u0433\u043b\u0430\u0441\u0438\u0435
p22
I20
sV\u043f\u043e\u0441\u043b\u0435\u0434\u043d\u0438\u0439
p23
I21
sV\u043d\u0435\u0434\u0435\u043b\u044f
p24
I22
sV\u0432\u0435\u0447\u0435\u0440\u043e\u043c
p25
I23
sV\u043d\u043d\u044b\u0439
p26
I24
sV\u043f\u043e\u0434\u0440\u0430\u0437\u0443\u043c\u0435\u0432\u0430\u0442\u044c
p27
I25
sV\u0434\u0432\u0430\u0446\u0430\u0442\u044c
p28
I26
sV\u043e\u0442\u0440\u0430\u0436\u0430\u0442\u044c\u0441\u044f
p29
I27
sV\u043b\u044e\u0431\u0430
p30
I28
sV\u0440\u0436\u0434
p31
I29
sV\u0442\u0438\u043c\u043e\u0444\u0435\u0439
p32
I30
sV\u0447\u0435\u043b\u043e\u0432\u0435\u043a
p33
I31
sV\u043c\u0435\u0441\u0442\u0430\u043c\u0438
p34
I32
sV\u0441\u0438\u0441\u0442\u0435\u043c\u0430
p35
I33
sV\u043f\u0440\u043e\u0447\u0438\u0442\u0430\u0442\u044c
p36
I34
sV\u0442\u043e\u0447\u043d\u043e
p37
I35
sV\u043b\u0438\u0447\u043d\u044b\u0439
p38
I36
sV\u043a\u043e\u0442
p39
I37
sV\u0434\u0440\u0443\u0433
p40
I38
sV\u0431\u043e\u043b\u0435\u0435
p41
I39
sV\u043e\u0431\u0449\u0438\u0439
p42
I40
sV\u043e\u043f\u0440\u0435\u0434\u0435\u043b
p43
I41
sV\u0440\u0443
p44
I42
sV\u043f\u0440\u0435\u0434\u043b\u043e\u0436\u0438\u0442\u044c
p45
I43
sV\u0441\u043c\u043e\u0442\u0440\u0435\u0442\u044c
p46
I44
sV\u0423-
p47
I45
sV\u0437\u0434\u0440\u0430\u0432\u0441\u0442
p48
I46
sV\u043f\u0440\u0438\u0435\u0445\u0430\u0442\u044c
p49
I47
sV\u043f\u0440\u0435\u0434\u044a\u044f\u0432\u043b\u0435\u043d\u0438\u0435
p50
I48
sV\u0434\u0435\u0432\u0443\u0448\u043a\u0430
p51
I49
sV\u044d\u043c
p52
I50
sV\u0447\u0443\u0432\u0441\u0442\u0432\u043e\u0432\u0430\u0442\u044c
p53
I51
sV\u0434\u0430\u0442\u044c
p54
I52
sV\u0441\u0434\u0430\u0432\u0430\u0442\u044c
p55
I53
sV\u0434\u043e\u0432\u0435\u0440\u0435\u043d\u043d\u043e\u0441\u0442\u044c
p56
I54
sV\u0432\u043e\u0441\u044f
p57
I55
sV\u043e\u0431\u0449\u0438\u0439-\u0442\u043e
p58
I56
sV\u043f\u043e\u043b\u0443\u0447\u0435\u043d\u0438\u0435
p59
I57
sV\u043c\u0438\u043d\u0438\u043c\u0430\u043b\u044c\u043d\u044b\u0439
p60
I58
sV\u043e\u0433\u0440\u043e\u043c\u043d\u044b\u0439
p61
I59
sV\u043f\u0440\u043e\u0432\u0435\u0440\u0438\u0442\u044c
p62
I60
sV\u0432\u0437\u0438\u043c\u0430\u0442\u044c\u0441\u044f
p63
I61
sV\u043d\u0435\u0441\u043a\u043e\u043b\u044c\u043a\u043e
p64
I62
sV\u0441\u0431\u043e\u0440
p65
I63
sV\u0435\u0432\u0433\u0435\u043d\u0438\u0439
p66
I64
sV\u0436\u0435\u043b\u0430\u043d\u0438\u0435
p67
I65
sV\u043f\u043e\u0439\u0442\u0438
p68
I66
sV\u043f\u0440\u043e\u0435\u0437\u0434
p69
I67
sV\u0441\u0442\u043e\u0438\u0442\u044c
p70
I68
sV\u043f\u043e\u043b\u043d\u043e\u0441\u0442\u044c\u044e
p71
I69
sV\u0430\u0433\u0440\u044b\u0437
p72
I70
sV\u0441\u043c\u0430
p73
I71
sV\u043f\u0440\u043e\u0446\u0435\u043d\u0442
p74
I72
sV\u043d\u0430\u0448
p75
I73
sV\u0440\u0435\u043a\u043b\u0430\u043c\u0430\u0446\u0438\u043e\u043d\u043d\u044b\u0439
p76
I74
sV\u0435\u0445\u0430\u0442\u044c
p77
I75
sV\u043d\u0435\u043a\u043e\u0442\u043e\u0440\u044b\u0439
p78
I76
sV\u044d\u0441
p79
I77
sV\u044d\u0442
p80
I78
sV\u0441\u043b\u0435\u0434\u0443\u044e\u0449\u0438\u0439
p81
I79
sV\u043f\u0440\u0438\u043e\u0431\u0440\u0435\u0441\u0442\u0438
p82
I80
sV\u0438\u043c\u044f
p83
I81
sV\u043e\u0444\u043e\u0440\u043c\u0438\u0442\u044c
p84
I82
sV\u044f\u0440\u043e\u0441\u043b\u0430\u0432\u0441\u043a\u0438\u0439
p85
I83
sV\u0431\u0430\u043a\u0443
p86
I84
sV\u0431\u0435\u0440\u0435\u0439\u0448\u0435\u043d\u0441\u043a\u0438\u0439
p87
I85
sV\u043f\u0430\u0446\u043a\u0430\u0440\u0442\u0430
p88
I86
sV\u0442\u0443\u0442
p89
I87
sV\u0434\u043e\u0441\u0442\u0430\u0442\u043e\u0447\u043d\u043e
p90
I88
sV\u0441\u0442\u043e\u0438\u043c\u043e\u0441\u0442\u044c
p91
I89
sV\u0441\u043f\u0440\u043e\u0441\u0438\u0442\u044c-\u043a\u0430
p92
I90
sV\u043e\u043a\u0441\u0430\u043d\u0430
p93
I91
sV\u043e\u0441\u0442\u0430\u0432\u0430\u0442\u044c\u0441\u044f
p94
I92
sV\u0440\u0435\u0433\u0438\u0441\u0442\u0430\u0440\u0446\u0438\u044f
p95
I93
sV\u0441\u043b\u0435
p96
I94
sV\u043c\u0435\u0441\u0442\u044c
p97
I95
sV\u0432\u043e\u0437\u0432\u0440\u0430\u0442
p98
I96
sV\u0441\u0432\u043e\u0431\u043e\u0434\u043d\u044b\u0439
p99
I97
sV\u0443\u0441\u043b\u043e\u0432\u0438\u0435
p100
I98
sV\u0443\u0434\u0435\u0440\u0436\u0438\u0432\u0430\u0442\u044c\u0441\u044f
p101
I99
sV\u043f\u0440\u0438\u043e\u0431\u0440\u0435\u0442\u0430\u0442\u044c
p102
I100
sV\u0442\u043e\u0447\u043d\u044b\u0439
p103
I101
sV\u043a\u0440\u0430\u0441\u043d\u044b\u0439
p104
I102
sV\u0441\u0432\u0438\u0434
p105
I103
sV\u043a\u0438\u0440\u0430
p106
I104
sV\u0438\u0437\u043c\u0435\u043d\u044f\u0442\u044c\u0441\u044f
p107
I105
sV\u0432\u043e\u0437\u0432\u0440\u0430\u0442\u0438\u0442\u044c
p108
I106
sV\u043e\u0440\u0438\u0433\u0438\u043d\u0430\u043b
p109
I107
sV\u043f\u043e\u043b\u0443\u0447\u0430\u0442\u044c\u0441\u044f
p110
I108
sV\u043a\u0430\u043d\u0430\u0448
p111
I109
sV\u0434\u0438\u0430\u043f\u0430\u0437\u043e\u043d
p112
I110
sV\u0430\u0434\u043b\u0435\u0440
p113
I111
sV\u043c\u043e\u043c\u0435\u043d\u0442
p114
I112
sV\u0438\u0433\u044b\u0440
p115
I113
sV\u0443\u0436\u0435
p116
I114
sV\u043a\u043e\u043d\u043a\u0440\u0435\u0442\u043d\u044b\u0439
p117
I115
sV\u0441\u043f\u0430\u0441\u0442\u0438
p118
I116
sV\u0440\u043e\u0441\u0442\u043e\u0432-\u043d\u0430-\u0434\u043e\u043d
p119
I117
sV\u0441\u043a\u043e\u043b\u044c\u043a\u0430
p120
I118
sV\u0439\u0435
p121
I119
sV\u043c\u0443\u0436
p122
I120
sV\u0441\u0432\u0438
p123
I121
sV\u043f\u043e\u0434\u043e\u0436\u0434\u0430\u0442\u044c
p124
I122
sV\u0443\u043a\u0430\u0437\u0430\u0442\u044c
p125
I123
sV\u0447\u0438\u0441
p126
I124
sV\u043e\u0444\u043e\u0440\u043c\u043b\u0435\u043d\u0438\u0435
p127
I125
sV\u0447\u0438\u0449
p128
I126
sV\u0431\u043b\u0430\u043d\u043a
p129
I127
sV\u043c\u043e\u0441\u043a\u043e\u0432\u0441\u043a\u0438\u0439
p130
I128
sV\u0433\u043e\u043c\u0435\u043b\u044c
p131
I129
sV\u0432\u044b\u0431\u0440\u0430\u0442\u044c
p132
I130
sV\u043f\u043e\u0432\u043e\u0434
p133
I131
sV\u043a\u0430\u0437\u0430\u043d\u0441\u043a\u0438\u0439
p134
I132
sV\u043c\u043e\u0441\u043a\u0432\u0430
p135
I133
sV\u0445\u0430\u0440\u044c\u043a\u043e\u0432
p136
I134
sV\u0432\u0432\u0435\u0441\u0442\u0438
p137
I135
sV\u043f\u0435\u0440\u0435\u0437\u0432\u043e\u043d\u0438\u0442\u044c
p138
I136
sV\u043f\u0435\u0442\u0440\u043e\u0437\u0430\u0432\u043e\u0434\u0441\u043a
p139
I137
sV\u043f\u044c
p140
I138
sV\u0440\u0430\u0439\u043e\u043d
p141
I139
sV\u0430\u043b\u0435\u043a\u0441\u0430\u043d\u0434\u0440
p142
I140
sV\u043f\u0440\u0435\u0434\u043e\u0441\u0442\u0430\u0432\u043b\u044f\u0442\u044c\u0441\u044f
p143
I141
sV\u0437\u0430\u043f\u0440\u043e\u0441
p144
I142
sV\u043a\u0430\u0431\u0438\u043d\u0435\u0442
p145
I143
sV\u0441\u0430\u043c\u043e\u043e\u0431\u0441\u043b\u0443\u0436\u0438\u0432\u0430\u043d\u0438\u0435
p146
I144
sV\u0441\u0430\u043c\u0430\u0440\u0430
p147
I145
sV\u0440\u0435\u0433\u0438\u0441\u0442\u0430\u0440\u0430\u0446\u0438\u044f
p148
I146
sV\u043f\u043e\u0435\u0437\u0434\u043a\u0430
p149
I147
sV\u044d\u043b\u0435\u043a\u0442\u0440\u043e\u043d\u043d\u044b\u0439
p150
I148
sV\u0434\u043e\u043f\u043e\u043b\u043d\u0438\u0442\u0435\u043b\u044c\u043d\u044b\u0439
p151
I149
sV\u0442\u043e\u0433\u0434\u0430
p152
I150
sV\u0432\u043e\u0434
p153
I151
sV\u0433\u043e\u0432\u043e\u0440\u0438\u0442\u044c
p154
I152
sV\u0434\u043e\u0435\u0445\u0430\u0442\u044c
p155
I153
sV\u043c\u0438\u043d\u0435\u0440\u0430\u043b\u044c\u043d\u044b\u0439
p156
I154
sV\u043c\u0443\u0440
p157
I155
sV\u0441\u0443\u043f\u0440\u0443\u0433
p158
I156
sV\u043c\u0430\u0440\u0448\u0440\u0443\u0442
p159
I157
sV\u043e\u0442\u043f\u0440\u0430\u0432\u0438\u0442\u044c
p160
I158
sV\u0441\u0435\u0433\u043e\u0434\u043d\u044f\u0448\u043d\u0438\u0439
p161
I159
sV\u0440\u0438\u043c\u043c\u0430
p162
I160
sV\u043c\u0435\u0441\u0442\u043e
p163
I161
sV\u043e\u0442\u043f\u0440\u0430\u0432\u043b\u044f\u0442\u044c\u0441\u044f
p164
I162
sV\u0441\u043f\u043e\u043a\u043e\u0439\u043d\u044b\u0439
p165
I163
sV\u0441\u043f\u0430
p166
I164
sV\u0443\u0432\u0435\u0440\u0438\u0442\u044c
p167
I165
sV\u043e\u0434\u0438\u043d
p168
I166
sV\u043e\u0442\u043c\u0435\u043d\u0438\u0442\u044c
p169
I167
sV\u043f\u0435\u0442\u0440\u043e
p170
I168
sV\u043e\u0442\u043a\u0443\u0434\u043e\u0432\u0430
p171
I169
sV\u043a\u0443\u043f\u0435
p172
I170
sV\u043b\u043e\u0433\u0438\u043d
p173
I171
sV\u043e\u0444\u043e\u0440\u043c\u043b\u044f\u0442\u044c
p174
I172
sV\u043e\u043f\u0435\u0440\u0430\u0442\u043e\u0440
p175
I173
sV\u0443\u0434\u043e\u0431\u043d\u043e
p176
I174
sV\u0441\u0442\u0440\u043e\u0438\u0442\u0435\u043b\u044c
p177
I175
sV\u043c\u0430\u043b\u0435\u043d\u044c\u043a\u0438\u0439
p178
I176
sV\u0435\u043a\u0430\u0442\u0435\u0440\u0438\u043d\u0431\u0443\u0440\u0433
p179
I177
sV\u043f\u0435\u0440\u0432\u043e\u0435
p180
I178
sV\u043c\u0438\u043d\u0443\u0442\u043e\u0447\u043a\u0430
p181
I179
sV\u0443\u0435\u0445\u0430\u0442\u044c
p182
I180
sV\u0441\u0430\u0445\u0430\u043b\u0438\u043d
p183
I181
sV\u0436\u0435\u043b\u0435\u0437\u043d\u043e\u0434\u043e\u0440\u043e\u0436\u043d\u044b\u0439
p184
I182
sV\u0441\u0430\u0445\u0430\u043b\u0438\u043d\u0441\u043a\u0438\u0439
p185
I183
sV\u043f\u0440\u043e\u0435\u0437\u0434\u043d\u043e\u0439
p186
I184
sV\u043e\u0431\u0440\u0430\u0442\u043d\u043e
p187
I185
sV\u043a\u043e\u043b\u0438\u0447\u0435\u0441\u0442\u0432\u043e
p188
I186
sV\u0441\u043f\u0438\u0441\u0430\u0442\u044c\u0441\u044f
p189
I187
sV\u0443\u043b\u044c\u044f\u043d
p190
I188
sV\u0445\u043e\u0434
p191
I189
sV\u0434\u0430\u0442\u0430
p192
I190
sV\u0432\u043d\u0438\u043c\u0430\u043d\u0438\u0435
p193
I191
sV\u0441\u0443\u0431\u0431\u043e\u0442\u0430
p194
I192
sV\u0438\u0437\u0432\u0435\u0441\u0442\u043d\u044b\u0439
p195
I193
sV\u0432\u044b\u043a\u0443\u043f\u0430\u0442\u044c
p196
I194
sV\u0432\u0435\u0441\u044c
p197
I195
sV\u0436\u0434\u0430\u0442\u044c
p198
I196
sV\u043f\u043e\u043a\u0430\u0437\u0430\u0442\u044c
p199
I197
sV\u043c\u043e\u043b\u043e\u0434\u0430\u044f
p200
I198
sV\u0434\u044b\u043d\u0434\u044b\u043d\u0434\u0430
p201
I199
sV\u043e\u0442\u043a\u0443\u0434\u0430
p202
I200
sV\u043f\u0440\u044f\u043c\u043e
p203
I201
sV\u043a\u043e\u0432\u0440\u043e\u0432\u044b\u0439
p204
I202
sV\u0434\u043e\u043b\u0433\u043e
p205
I203
sV\u043f\u043e\u043a\u0443\u043f\u043a\u0430
p206
I204
sV\u0437\u0430\u043a\u0430\u0437
p207
I205
sV\u043f\u043b\u0430\u0446\u043a\u0430\u0440\u0442\u043d\u044b\u0439
p208
I206
sV\u0432\u043e\u043a\u0437\u0430\u043b
p209
I207
sV\u0438\u043d\u0444\u043e\u0440\u043c\u0430\u0446\u0438\u043e\u043d\u043d\u044b\u0439
p210
I208
sV\u043f\u0440\u043e\u0438\u0437\u0432\u0435\u0441\u0442\u0438
p211
I209
sV\u0444\u043f\u043e
p212
I210
sV\u0442\u044e\u043c\u0435\u043d\u044c
p213
I211
sV\u0441\u0430\u043d\u043a\u0442-\u043f\u0435\u0442\u0435\u0440\u0431\u0443\u0440\u0433
p214
I212
sV\u0431\u044c
p215
I213
sV\u0431\u043b\u0430\u0433\u043e\u0434\u0430\u0440\u0438\u0442\u044c
p216
I214
sV\u043f\u0440\u0438\u0446\u0435\u043f\u043d\u043e\u0439
p217
I215
sV\u043f\u0440\u0438\u0431\u043b\u0438\u0437\u0438\u0442\u0435\u043b\u044c\u043d\u043e
p218
I216
sV\u0440\u0430\u0437\u0434\u0435\u043b
p219
I217
sV\u0442\u043e\u0440\u0436\u043e\u043a
p220
I218
sV\u0432\u044b\u0435\u0437\u0434
p221
I219
sV\u0432\u0447\u0435\u0440\u0430
p222
I220
sV\u0441\u0442\u043e\u0439\u043a\u0430
p223
I221
sV\u043e\u0434\u0438\u043d-\u0442\u043e
p224
I222
sV\u0438\u043d\u0430
p225
I223
sV\u043f\u0440\u043e\u0438\u0441\u0445\u043e\u0434\u0438\u0442\u044c
p226
I224
sV\u043f\u043e\u043f\u0440\u043e\u0431\u043e\u0432\u0430\u0442\u044c
p227
I225
sV\u0431\u0443\u043c\u0430\u0433\u0430
p228
I226
sV\u0435\u0436\u0435\u0441\u0435\u043a\u0443\u043d\u0434\u043d\u043e
p229
I227
sV\u0440\u0430\u0437
p230
I228
sV\u0434\u0430\u043b\u0435\u0435
p231
I229
sV\u043d\u0438\u0447
p232
I230
sV\u0431\u0435\u0441\u043f\u043b\u0430\u0442\u043d\u043e
p233
I231
sV\u0432\u043d\u0435\u043f\u043b\u0430\u043d\u043e\u0432\u044b\u0439
p234
I232
sV\u0430\u043b\u0430
p235
I233
sV\u0431\u0443\u043a\u0432\u0430\u043b\u044c\u043d\u043e
p236
I234
sV\u0442\u0435\u043a\u0443\u0449\u0438\u0439
p237
I235
sV\u0434\u0443\u043c\u0430\u0442\u044c
p238
I236
sV\u043a\u0443\u0440\u0441\u043a\u0438\u0439
p239
I237
sV\u0440\u0430\u0441\u043f\u0435\u0447\u0430\u0442\u0430\u0442\u044c
p240
I238
sV\u0441\u043b\u0435\u0434\u043e\u0432\u0430\u043d\u0438\u0435
p241
I239
sV\u043e\u0433\u043e\u0432\u043e\u0440\u0438\u0442\u044c
p242
I240
sV\u0433\u0430\u043b\u043e\u0447\u043a\u0430
p243
I241
sV\u0432\u044b\u0441\u0432\u0435\u0447\u0438\u0432\u0430\u0442\u044c
p244
I242
sV\u0432\u043e\u0437\u043c\u043e\u0436\u043d\u043e\u0441\u0442\u044c
p245
I243
sV\u0434\u043d\u0435\u0432\u043d\u044b\u0439
p246
I244
sV\u0434\u0435\u0432\u044f\u0442\u0438\u0447\u0430\u0441\u043e\u0432\u043e\u0439
p247
I245
sV\u0441\u043c\u043e\u0447\u044c
p248
I246
sV\u043d\u043e\u043b\u044c
p249
I247
sV\u043c\u043e\u0436
p250
I248
sV\u0441\u0434\u0430\u0447\u0430
p251
I249
sV\u0434\u043e\u0431\u0440\u0430\u0442\u044c\u0441\u044f
p252
I250
sV\u043f\u0440\u043e\u043f\u0443\u0441\u043a\u0430\u0442\u044c
p253
I251
sV\u0445\u043e\u0440\u043e\u0448\u0438\u0439
p254
I252
sV\u043f\u0440\u043e\u0438\u043d\u0444\u043e\u0440\u043c\u0438\u0440\u043e\u0432\u0430\u0442\u044c
p255
I253
sV\u0447\u0442\u043e-\u043d\u0438\u0431\u044b\u0442\u044c
p256
I254
sV\u0434\u0435\u043d\u0435\u0436\u043d\u044b\u0439
p257
I255
sV\u043d\u0435\u043e\u0431\u0445\u043e\u0434\u0438\u043c\u043e\u0441\u0442\u044c
p258
I256
sV\u0430\u0432\u0442\u043e\u0432\u043e\u043a\u0437\u0430\u043b
p259
I257
sV\u0434\u043e\u043a\u0443\u043c\u0435\u043d\u0442
p260
I258
sV\u0431\u0435\u0441\u043f\u043e\u043b\u0435\u0437\u043d\u044b\u0439
p261
I259
sV\u043f\u043e\u044d\u0442\u043e\u043c\u0443
p262
I260
sV\u0441\u043e\u0440\u0442\u0438\u0440\u043e\u0432\u043e\u0447\u043d\u044b\u0439
p263
I261
sV\u0443\u0441\u043f\u0435\u0442\u044c
p264
I262
sV\u043f\u0435\u0440\u0435\u0441\u0430\u0434\u043a\u0430
p265
I263
sV\u0441\u0445\u043e\u0434\u043d\u044f
p266
I264
sV\u043c\u0438\u043d\u0432\u043e\u0434
p267
I265
sV\u043c\u0438\u043b\u0435\u043d\u044c\u043a\u0438\u0439
p268
I266
sV\u0442\u0435\u0440\u043c\u0438\u043d\u0430\u043b
p269
I267
sV\u043d\u043e\u0447\u044c
p270
I268
sV\u043e\u0431\u044b\u0447\u043d\u043e
p271
I269
sV\u043d\u0430\u0432\u0435\u0440\u043d\u043e\u0435
p272
I270
sV\u0448\u0442\u0443\u043a\u0430
p273
I271
sV\u0441\u0430\u043c
p274
I272
sV\u043e\u0434\u0438
p275
I273
sV\u0432\u0430\u0441\u0438\u043b\u044c\u0435\u0432\u043e
p276
I274
sV\u0440\u0430\u0441\u043f\u0438\u0441\u0430\u043d\u0438\u0435
p277
I275
sV\u043f\u043e\u0441\u0430\u0434\u043a\u0430
p278
I276
sV\u043d\u0435\u043e\u0431\u0445\u043e\u0434\u0438\u043c\u044b\u0439
p279
I277
sV\u043e\u0441\u0442
p280
I278
sV\u043f\u0438\u0442\u0435\u0440
p281
I279
sV\u0441\u0442\u0440\u0430\u0448\u043d\u044b\u0439
p282
I280
sV\u043c\u0438\u043d\u0430
p283
I281
sV\u0441\u0432\u0435\u0440\u0434\u043b\u043e\u0432\u0441\u043a
p284
I282
sV\u0441\u0430\u043f\u0441\u0430\u043d
p285
I283
sV\u0431\u0440\u0430\u0442\u044c
p286
I284
sV\u043f\u043e\u0437\u0432\u0430\u0442\u044c-\u043a\u0430
p287
I285
sV\u043f\u043e\u043d\u0438\u043c\u0430\u0442\u044c
p288
I286
sV\u0432\u0430\u0441\u0438\u043b\u044c\u0435\u0432
p289
I287
sV\u043c\u0438\u043d\u044c
p290
I288
sV\u0432\u043f\u0443\u0441\u043a\u0430\u0442\u044c
p291
I289
sV\u0435\u043b\u0435\u043d\u0430
p292
I290
sV\u043a\u0430\u043a\u0438
p293
I291
sV\u043e\u0436\u0438\u0434\u0430\u0442\u044c
p294
I292
sV\u0440\u043e\u0434\u0438\u0442\u0435\u043b\u044c
p295
I293
sV\u0444\u0438\u043d\u043b\u044f\u043d\u0434\u0441\u043a\u0438\u0439
p296
I294
sV\u043e\u0440\u0438\u0435\u043d\u0442\u0438\u0440\u043e\u0432\u043e\u0447\u043d\u043e
p297
I295
sV\u043f\u0438\u0441\u0430\u0442\u044c
p298
I296
sV\u0430\u043d\u0430\u0441\u0442\u0430\u0441\u0438\u0439
p299
I297
sV\u0441\u0442\u0430\u0442\u0443\u0441
p300
I298
sV\u044d\u043b
p301
I299
sV\u043d\u0430\u0437\u0432\u0430\u0442\u044c
p302
I300
sV\u0441\u0443\u043f\u0440\u0443\u0433\u0430
p303
I301
sV\u0441\u0441\u044b\u043b\u043a\u0430
p304
I302
sV\u0442\u0430\u0431\u043b\u043e
p305
I303
sV\u043e\u043f\u0435\u0440\u0430\u0446\u0438\u044f
p306
I304
sV\u044d\u043b\u0435\u043a\u0442\u0440\u043e\u043f\u043e\u0435\u0437\u0434
p307
I305
sV\u0440\u0430\u0437\u043c\u0435\u0440
p308
I306
sV\u0443\u0439\u0442\u0438
p309
I307
sV\u043e\u0431\u0440\u0430\u0437
p310
I308
sV\u0442\u043d\u044b\u0439
p311
I309
sV\u0443\u0447\u0438\u0442\u044c
p312
I310
sV\u043a\u0430\u0440\u0442\u043e\u0447\u043a\u0430
p313
I311
sV\u043e\u043c\u0437\u0438\u0442\u044c
p314
I312
sV\u0432\u043e\u0440\u043a\u0443\u0442\u0430
p315
I313
sV\u0441\u043e\u0431\u0438\u0440\u0430\u0442\u044c\u0441\u044f
p316
I314
sV\u0443\u0435\u0437\u0436\u0430\u0442\u044c
p317
I315
sV\u043d\u0430\u0445\u043e\u0434\u0438\u0442\u044c\u0441\u044f
p318
I316
sV\u0436\u0435\u043b\u0430\u0442\u0435\u043b\u044c\u043d\u043e
p319
I317
sV\u0443\u0442\u0440\u043e\u043c
p320
I318
sV\u0431\u0435\u0440
p321
I319
sV\u0435\u0436\u0435\u0434\u043d\u0435\u0432\u043d\u043e
p322
I320
sV\u0447\u0438\u0442\u0430\u0442\u044c
p323
I321
sV\u0440\u0430\u0441\u043f\u0435\u0447\u0430\u0442\u044b\u0432\u0430\u0442\u044c
p324
I322
sV\u043f\u0440\u0438\u0447\u0438\u043d\u0430
p325
I323
sV\u043e\u0441\u043d\u043e\u0432\u0430\u043d\u0438\u0435
p326
I324
sV\u0437\u0430\u043d\u044f\u0442\u044c
p327
I325
sV\u0447\u0435
p328
I326
sV\u0432\u043e\u0437\u043c\u043e\u0436\u043d\u044b\u0439
p329
I327
sV\u043f\u0440\u043e\u0448\u043b\u044b\u0439
p330
I328
sV\u044d\u043a\u0441\u043f\u0440\u0435\u0441\u0441
p331
I329
sV\u043e\u0441\u0442\u0430\u0432\u0438\u0442\u044c
p332
I330
sV\u0443\u0437\u043d\u0430\u0432\u0430\u0442\u044c
p333
I331
sV\u0437\u0430\u043a\u0430\u0437-\u0442\u043e
p334
I332
sV\u043d\u0430\u043b\u044c\u0447\u0438\u043a
p335
I333
sV\u043c\u043e\u0441
p336
I334
sV\u0437\u0430\u043d\u044f\u0442\u0438\u0435
p337
I335
sV\u043c\u0430\u0440\u0438\u043d
p338
I336
sV\u0440\u0443\u043a\u0430
p339
I337
sV\u0443\u0434\u043e\u0441\u0442\u043e\u0432\u0435\u0440\u044f\u0442\u044c
p340
I338
sV\u0433\u0434\u0435
p341
I339
sV\u0438\u0434\u0442\u0438
p342
I340
sV\u0431\u043e\u043b\u044c\u0448\u0438\u0439
p343
I341
sV\u0434\u043e\u043f\u043e\u043b\u043d\u0438\u0442\u0435\u043b\u044c\u043d\u043e
p344
I342
sV\u0438\u0437\u043c\u0435\u043d\u0435\u043d\u0438\u0435
p345
I343
sV\u0432\u043e\u0441
p346
I344
sV\u0443\u0434\u0435\u043b\u044c\u043d\u044b\u0439
p347
I345
sV\u0432\u043e\u0439
p348
I346
sV\u0432\u0435\u0447\u0435\u0440\u043d\u0438\u0439
p349
I347
sV\u043f\u0440\u0438\u0439\u0442\u0438
p350
I348
sV\u0432\u043e\u043d
p351
I349
sV\u043f\u043e\u043d\u0435\u0434\u0435\u043b\u044c\u043d\u0438\u043a
p352
I350
sV\u043d\u0435\u043c\u043e\u0439
p353
I351
sV\u0432\u0435\u0440\u0430
p354
I352
sV\u0447\u0435\u0439
p355
I353
sV\u043e\u0440\u0438\u0435\u043d\u0442\u0438\u0440\u043e\u0432\u043e\u0447\u043d\u044b\u0439
p356
I354
sV\u043c\u0430\u0440\u0438\u044f
p357
I355
sV\u0437\u0430\u0432\u0435\u0440\u0438\u0442\u044c
p358
I356
sV\u0434\u043e\u0441\u0442\u0430\u0442\u043e\u0447\u043d\u044b\u0439
p359
I357
sV\u0431\u0430\u043a\u0438\u043d\u0441\u043a\u0438\u0439
p360
I358
sV\u043f\u0440\u043e\u0446\u0435\u0434\u0443\u0440\u0430
p361
I359
sV\u0441\u0440\u0435\u0434\u0441\u0442\u0432\u043e
p362
I360
sV\u0431\u0438\u043b\u044c
p363
I361
sV\u0432\u044b\u043d
p364
I362
sV\u0432\u044b\u0439
p365
I363
sV\u0445\u043e\u0440\u043e\u0448\u043e
p366
I364
sV\u0443\u0434\u0435\u0440\u0436\u0430\u043d\u0438\u0435
p367
I365
sV\u043d\u0430\u043f\u0440\u0430\u0432\u043b\u0435\u043d\u0438\u0435
p368
I366
sV\u043c\u043e\u0441\u043a\u0432\u0430-\u043f\u0438\u0442\u0435\u0440
p369
I367
sV\u043f\u043e\u043c\u043d\u0438\u0442\u044c
p370
I368
sV\u0437\u0434\u0440\u0430\u0441\u0442\u0432\u043e\u0432\u0430\u0442\u044c
p371
I369
sV\u0434\u043e\u043b\u0436\u043d\u044b\u0439
p372
I370
sV\u043d\u0430\u043f\u0438\u0441\u0430\u0442\u044c
p373
I371
sV\u0437\u0430\u0434\u0440\u0430\u0432\u0441\u0442\u0432\u043e\u0432\u0430\u0442\u044c
p374
I372
sV\u043e\u043f\u0430
p375
I373
sV\u043e\u0442\u043f\u0440\u0430\u0432\u0438\u0442\u044c\u0441\u044f
p376
I374
sV\u044d\u043b\u0435\u0433\u0441\u0442
p377
I375
sV\u0437\u0430\u043a\u0430\u0437\u0430\u0442\u044c
p378
I376
sV\u0432\u043e\u0437\u0432\u0440\u0430\u0449\u0430\u0442\u044c\u0441\u044f
p379
I377
sV\u043d\u043e\u0432\u043e\u0440\u043e\u0441\u0441\u0438\u0439\u0441\u043a
p380
I378
sV\u0438\u043d\u0444\u043e\u0440\u043c\u0430\u0446\u0438\u044f
p381
I379
sV\u043a\u0430\u0437\u0430\u043d\u044c
p382
I380
sV\u0445\u043e\u0434\u0438\u0442\u044c
p383
I381
sV\u043d\u0430\u0437\u0430\u0434
p384
I382
sV\u0447\u0430\u0441\u044b
p385
I383
sV\u043c\u0443\u0440\u043e\u043c
p386
I384
sV\u0430\u043d\u0430
p387
I385
sV\u043c\u0430\u043a\u0441\u0438\u043c\u0443\u043c
p388
I386
sV\u0441\u043e\u0433\u043b\u0430\u0441\u0438\u0442\u044c\u0441\u044f
p389
I387
sV\u043b\u0435\u043d\u0438\u043d\u0433\u0440\u0430\u0434\u0441\u043a\u0438\u0439
p390
I388
sV\u043f\u043e\u0434\u0441\u043a\u0430\u0437\u0430\u0442\u044c
p391
I389
sV\u0443\u0445\u043e\u0434\u0438\u0442\u044c
p392
I390
sV\u043a\u043e\u0442\u0435\u043b\u044c\u043d\u0438\u0447
p393
I391
sV\u043e\u0442\u0434\u0435\u043b\u044c\u043d\u044b\u0439
p394
I392
sV\u0432\u0435\u0440\u043d\u0443\u0442\u044c\u0441\u044f
p395
I393
sV\u0432\u043e\u043e\u0431\u0449\u0435
p396
I394
sV\u0443\u0442\u0440\u043e
p397
I395
sV\u0441\u0442\u0430\u043d\u0446\u0438\u044f
p398
I396
sV\u044e\u043b\u0438\u0439
p399
I397
sV\u043d\u043e\u0432\u0433\u043e\u0440\u043e\u0434
p400
I398
sV\u0444\u0438\u043d
p401
I399
sV\u043d\u0435\u043f\u043b\u0430\u043d\u043e\u0432\u044b\u0439
p402
I400
sV\u0434\u043b\u0438\u0442\u0435\u043b\u044c\u043d\u044b\u0439
p403
I401
sV\u043f\u0440\u043e\u0432\u043e\u0434\u043d\u0438\u043a
p404
I402
sV\u043f\u0430\u0432\u0435\u043b\u0435\u0446\u043a\u0438\u0439
p405
I403
sV\u0438\u043d\u0442\u0435\u0440\u0435\u0441\u043e\u0432\u0430\u0442\u044c
p406
I404
sV\u0437\u043d\u0430\u0442\u044c
p407
I405
sV\u0441\u0438\u043c\u0444\u0435\u0440\u043e\u043f\u043e\u043b\u044c
p408
I406
sV\u0440\u0430\u043d\u043d\u0438\u0439
p409
I407
sV\u043b\u0438\u0447\u043d\u043e
p410
I408
sV\u043d\u0435\u0432\u043e\u0437\u043c\u043e\u0436\u043d\u043e
p411
I409
sV\u0442\u0443\u0434\u0430
p412
I410
sV\u043f\u043e\u043d\u044f\u0430\u0442\u044c
p413
I411
sV\u043d\u0438\u043a\u0430\u043a\u043e\u0439
p414
I412
sV\u043a\u0430\u043b\u0443\u0433\u0430
p415
I413
sV\u043d\u043e\u0442\u0430\u0440\u0438\u0430\u043b\u044c\u043d\u043e
p416
I414
sV\u043a\u0440\u0430\u0441\u043d\u043e\u0434\u0430\u0440
p417
I415
sV\u0432\u0437\u044f\u0442\u044c\u0441\u044f
p418
I416
sV\u0441\u0435\u0433\u0434\u0435\u043d\u044c
p419
I417
sV\u043f\u0440\u0438\u0431\u044b\u0432\u0430\u0442\u044c
p420
I418
sV\u043d\u043e\u043a
p421
I419
sV\u043d\u0430\u0437\u0432\u0430\u043d\u0438\u0435
p422
I420
sV\u0444\u0438\u043d\u043b
p423
I421
sV\u0435\u0436\u0435\u0434\u043d\u0435\u0432\u043d\u044b\u0439
p424
I422
sV\u043f\u0440\u043e\u0445\u043e\u0434\u0438\u0442\u044c
p425
I423
sV\u0444\u0430\u043c\u0438\u043b\u0438\u044f
p426
I424
sV\u043e\u0431\u0440\u0430\u0449\u0430\u0442\u044c\u0441\u044f
p427
I425
sV\u0441\u0438\u0434\u044f\u0447\u0438\u0439
p428
I426
sV\u043f\u0440\u0435\u0434\u043b\u0430\u0433\u0430\u0442\u044c
p429
I427
sV\u043f\u043e\u043a\u0443\u043f\u0430\u0442\u044c
p430
I428
sV\u043a\u0430\u043a\u043e\u0439-\u043b\u0438\u0431\u043e
p431
I429
sV\u043f\u043e\u0437\u0434\u043d\u0438\u0439
p432
I430
sV\u043f\u043e\u0435\u0445\u0430\u0442\u044c
p433
I431
sV\u0438\u0437\u0432\u0438\u043d\u0438\u0442\u044c
p434
I432
sV\u043b\u044e\u043a\u0441
p435
I433
sV\u0430\u0433\u0435\u043d\u0441\u0442\u0432\u043e
p436
I434
sV\u0431\u0438\u043b\u0435\u0442
p437
I435
sV\u0437\u0430\u0432\u0442\u0440\u0430\u0448\u043d\u0438\u0439
p438
I436
sV\u0435\u043a\u0430\u0442\u0435\u0440\u0438\u043d\u0430
p439
I437
sV\u0440\u0435\u0433\u0438\u0441\u0442\u0440
p440
I438
sV\u0437\u0430\u0432\u0442\u0440\u0430
p441
I439
sV\u0437\u0430\u0432\u0438\u0441\u0438\u043c\u043e\u0441\u0442\u044c
p442
I440
sV\u0440\u0430\u0437\u0433\u043e\u0432\u0430\u0440\u0438\u0432\u0430\u0442\u044c
p443
I441
sV\u0446\u0435\u043d\u0430
p444
I442
sV\u0437\u043a\u0430
p445
I443
sV\u0442\u0435\u043f\u0435\u0440\u044c
p446
I444
sV\u043a\u043d\u043e\u043f\u043a\u0430
p447
I445
sV\u043f\u043b\u0430\u0446\u043a\u0430\u0440\u0442\u0430
p448
I446
sV\u0441\u0434\u0430\u0442\u044c
p449
I447
sV\u0432\u0440\u0435\u043c\u044f
p450
I448
sV\u0441\u043b\u0443\u0448\u0430\u0442\u044c
p451
I449
sV\u0449\u0430\u0441
p452
I450
sV\u0441\u0435\u0433\u043e\u0434\u043d\u044f
p453
I451
sV\u0432\u043b\u0430\u0434\u0438\u043c\u0438\u0440
p454
I452
sV\u043c\u043e
p455
I453
sV\u043c\u043d
p456
I454
sV\u043a\u0443\u0440\u0441\u0438\u0440\u043e\u0432\u0430\u0442\u044c
p457
I455
sV\u0443\u0441\u043b\u0443\u0433\u0430
p458
I456
sV\u0432\u044b\u0431\u043e\u0440\u0433
p459
I457
sV\u0432\u043e\u043b\u0433\u0430
p460
I458
sV\u043a\u0430\u043a\u043e\u0439-\u0442\u043e
p461
I459
sV\u043a\u0438\u0440\u043e\u0432
p462
I460
sV\u0441\u0432\u044f\u0437\u044c
p463
I461
sV\u043f\u0440\u0438\u0431\u043b\u0438\u0437\u0438\u0442\u0435\u043b\u044c\u043d\u044b\u0439
p464
I462
sV\u0432\u044b\u043a\u0443\u043f\u0438\u0442\u044c
p465
I463
sV\u043d\u0443\u0436
p466
I464
sV\u043d\u0430\u043e\u0431\u043e\u0440\u043e\u0442
p467
I465
sV\u0438\u043d\u043d\u0430
p468
I466
sV\u043e\u043f\u043e\u0432\u0435\u0441\u0442\u0438\u0442\u044c
p469
I467
sV\u0434\u0435\u043d\u044c\u0433\u0430
p470
I468
sV\u0432\u043d\u0438\u043c\u0430\u0442\u0435\u043b\u044c\u043d\u043e
p471
I469
sV\u0433\u0440\u043e\u0437\u043d\u044b\u0439
p472
I470
sV\u043f\u043e\u043c\u0435\u043d\u044f\u0442\u044c
p473
I471
sV\u0440\u0436
p474
I472
sV\u0441\u0432\u043e\u0439
p475
I473
sV\u043b\u0443\u0447\u0449\u0438\u0439
p476
I474
sV\u0441\u0442\u043e
p477
I475
sV\u043f\u0440\u0438\u0431\u044b\u0442\u044c
p478
I476
sV\u043a\u0443\u0440\u0441\u043a
p479
I477
sV\u0443\u0442\u043e\u0447\u043d\u044f\u0442\u044c
p480
I478
sV\u0437\u0430\u044f\u0432\u043b\u0435\u043d\u0438\u0435
p481
I479
sV\u043a\u043b\u0438\u043d\u0441\u043a\u0438\u0439
p482
I480
sV\u043f\u0440\u043e\u0439\u0442\u0438
p483
I481
sV\u043f\u043b\u0430\u043d\u043e\u0432\u044b\u0439
p484
I482
sV\u043f\u0440\u0438\u0435\u0437\u0436\u0430\u0442\u044c
p485
I483
sV\u0435\u0433\u043e\u0440\u044c\u0435\u0432\u0441\u043a
p486
I484
sV\u0441\u043e\u0436\u0430\u043b\u0435\u043d\u0438\u0435
p487
I485
sV\u0441\u043e\u0431\u0430\u043a\u0430
p488
I486
sV\u043f\u043e\u0441\u043c\u043e\u0442\u0440\u0435\u0442\u044c
p489
I487
sV\u0441\u0430\u0439\u0442
p490
I488
sV\u0441\u0430\u043d
p491
I489
sV\u0434\u0430\u043b\u044c\u043d\u0438\u0439
p492
I490
sV\u0447\u0435\u043b\u043e
p493
I491
sV\u0441\u0443\u043c\u043c\u0430
p494
I492
sV\u0437\u0434\u0435\u0441\u044c
p495
I493
sV\u043a\u0438\u0439
p496
I494
sV\u043c\u044d
p497
I495
sV\u0443\u0441\u0442\u0430\u043d\u043e\u0432\u043b\u0435\u043d\u043d\u044b\u0439
p498
I496
sV\u043f\u0440\u043e\u043a\u043e\u043d\u0441\u0443\u043b\u044c\u0442\u0438\u0440\u043e\u0432\u0430\u0442\u044c
p499
I497
sV\u0432\u0441
p500
I498
sV\u043d\u0435\u0434\u0435\u043b\u044c\u043a\u0430
p501
I499
sV\u0432\u043e\u0437\u043d\u0438\u043a\u0430\u0442\u044c
p502
I500
sV\u0434\u0432\u0438\u0436\u0435\u043d\u0438\u0435
p503
I501
sV\u0442\u044c
p504
I502
sV\u0431\u043e\u043b\u0435\u0442\u044c
p505
I503
sV\u0434\u0435\u043c\u0438\u0434\u043e\u0432\u0441\u043a\u0438\u0439
p506
I504
sV\u0443\u0437\u043d\u0430\u0442\u044c
p507
I505
sV\u043a\u0430\u0440\u0442\u0430
p508
I506
sV\u0441\u0430\u0440\u0430\u043d\u0441\u043a
p509
I507
sV\u0435\u0449
p510
I508
sV\u0431\u0443\u043c\u0430\u0436\u043d\u044b\u0439
p511
I509
sV\u0441\u0434\u0435\u043b\u0430\u0442\u044c
p512
I510
sV\u0434\u0437\u0435\u0440\u0436\u0438\u043d\u0441\u043a
p513
I511
sV\u0441\u043d\u044f\u0442\u044c
p514
I512
sV\u0441\u043e\u043e\u0431\u0449\u0435\u043d\u0438\u0435
p515
I513
sV\u0441\u0440\u043e\u043a
p516
I514
sV\u043e\u0431\u044b\u0447\u043d\u044b\u0439
p517
I515
sV\u0440\u0435\u0431
p518
I516
sV\u0431\u0430\u0437\u0430
p519
I517
sV\u0442\u0438\u043f
p520
I518
sV\u043f\u043e\u0436\u0438\u0439
p521
I519
sV\u0440\u043e\u0436\u0434\u0435\u043d\u0438\u0435
p522
I520
sV\u043e\u0447\u0435\u043d\u044c
p523
I521
sV\u0430\u0432\u0442\u043e\u0438\u043d\u0444\u043e\u0440\u043c\u0430\u0442\u043e\u0440
p524
I522
sV\u0434\u0430\u043b
p525
I523
sV\u043a\u0438\u0435\u0432\u0441\u043a\u0438\u0439
p526
I524
sV\u0433\u043e\u0434
p527
I525
sV\u043e\u0442\u043c\u0435\u043d\u0430
p528
I526
sV\u0434\u0435\u043d\u044c\u0433\u0430-\u0442\u043e
p529
I527
sV\u0440\u0430\u0437\u043d\u044b\u0439
p530
I528
sV\u0432\u0430\u0433\u043e\u043d
p531
I529
sV\u043e\u0431\u043b\u0430\u0441\u0442\u044c
p532
I530
sV\u043e\u0442\u043e\u0431\u0440\u0430\u0436\u0430\u0442\u044c\u0441\u044f
p533
I531
sV\u043e\u043f\u044f\u0442\u044c
p534
I532
sV\u044e\u0440\u0430
p535
I533
sV\u0432\u0437\u0438\u0430\u0442\u044c\u0441\u044f
p536
I534
sV\u043f\u043e\u0442\u043e\u043c\u0443
p537
I535
sV\u043e\u0442\u043b\u0438\u0447\u043d\u043e
p538
I536
sV\u044f\u043d\u0432\u0430\u0440\u044c
p539
I537
sV\u043f\u043e\u0437\u0434\u043d\u043e
p540
I538
sV\u0431\u0435\u0437\u0434\u0435\u043d\u0435\u0436\u043d\u044b\u0439
p541
I539
sV\u043f\u043e\u043d\u044f\u0442\u044c
p542
I540
sV\u0443\u0442\u043e\u0447\u043d\u0438\u0442\u044c
p543
I541
sV\u043a\u043b\u0430\u0441\u0441
p544
I542
sV\u043a\u043e\u043b\u043f\u0438\u043d\u043e
p545
I543
sV\u043f\u0440\u0438\u0433\u043e\u0440\u043e\u0434\u043d\u044b\u0439
p546
I544
sV\u043e\u0431\u0441\u0442\u043e\u044f\u0442\u0435\u043b\u044c\u0441\u0442\u0432\u043e
p547
I545
sV\u043f\u0430\u0440\u0433\u043e\u043b\u043e\u0432\u043e
p548
I546
sV\u0437\u0432\u043e\u043d\u0438\u0442\u044c
p549
I547
sV\u0434\u043c\u0438\u0442\u0440\u0438\u0439
p550
I548
sV\u043d\u0438\u0436\u043d\u0438\u0439
p551
I549
sV\u043b\u0438\u043b\u0438\u044f
p552
I550
sV\u043c\u0430\u043a\u0441\u0438\u043c\u0430\u043b\u044c\u043d\u044b\u0439
p553
I551
sV\u0432\u0435\u0440\u043d\u0443\u0442\u044c
p554
I552
sV\u0441\u043f\u0430\u0438\u0441\u0431\u044b\u0439
p555
I553
sV\u043f\u043e\u0442\u0435\u0440\u044f\u0442\u044c
p556
I554
sV\u043f\u043e\u0441\u0442
p557
I555
sV\u0437\u0430\u043a\u0430\u0437\u044b\u0432\u0430\u0442\u044c
p558
I556
sV\u043f\u043e\u043b\u043d\u044b\u0439
p559
I557
sV\u0438\u0436\u0435\u0432\u0441\u043a
p560
I558
sV\u043f\u043e\u044f\u0432\u0438\u0442\u044c\u0441\u044f
p561
I559
sV\u0438\u0440\u0438\u043d\u0430
p562
I560
sV\u0441\u043a\u043e\u0440\u043e\u0441\u0442\u043d\u043e\u0439
p563
I561
sV\u043e\u0441\u0443\u0449\u0435\u0441\u0442\u0432\u043b\u044f\u0442\u044c\u0441\u044f
p564
I562
sV\u043c\u0443\u0440\u043c\u0430\u043d\u0441\u043a
p565
I563
sV\u0432\u043e\u0437\u0432\u0440\u0430\u0449\u0430\u0442\u044c
p566
I564
sV\u043f\u0440\u0430\u0432\u0438\u043b\u043e
p567
I565
sV\u043e\u0441\u0442\u0430\u043b\u044c\u043d\u043e\u0439
p568
I566
sV\u043f\u043e\u043b\u043a\u0430
p569
I567
sV\u0432\u044b\u043d\u0443\u0436\u0434\u0430\u0442\u044c
p570
I568
sV\u043f\u043e\u0435\u0434\u0430
p571
I569
sV\u0430\u043b\u0435\u043a\u0441\u0435\u0439
p572
I570
sV\u043a\u0443\u043f\u0435\u0439\u043d\u044b\u0439
p573
I571
sV\u043f\u043e\u0438\u0441\u043a\u0430\u0442\u044c
p574
I572
sV\u0437\u0430\u0442\u0435\u043c
p575
I573
sV\u043d\u0430\u0442\u0430\u043b\u044c\u044f
p576
I574
sV\u0441\u0432\u0438\u0434\u0435\u0442\u0435\u043b\u044c\u0441\u0442\u0432\u043e
p577
I575
sV\u0443\u0434\u0435\u0440\u0436\u0430\u0442\u044c
p578
I576
sV\u0442\u0440\u0435\u0442\u044c\u0435
p579
I577
sV\u043f\u0440\u0435\u0434\u043e\u0441\u0442\u0430\u0432\u043b\u044f\u0442\u044c
p580
I578
sV\u043f\u043e\u044f\u0441\u043d\u0438\u0442\u044c
p581
I579
sV\u0437\u0430\u0439\u0442\u0438
p582
I580
sV\u0441\u0430\u043c\u044b\u0439
p583
I581
sV\u043a\u043e\u043c\u0438\u0441\u0441\u0438\u043e\u043d\u043d\u044b\u0439
p584
I582
sV\u0440\u0435\u0448\u0438\u0442\u044c
p585
I583
sV\u043f\u044f\u0442\u0438\u0433\u043e\u0440\u0441\u043a
p586
I584
sV\u0443\u0442\u0440\u0435\u043d\u043d\u0438\u0439
p587
I585
sV\u0434\u0435\u043d\u044c
p588
I586
sV\u043f\u043e\u0441\u043c
p589
I587
sV\u0438\u043d\u0441\u0442\u0440\u0443\u043a\u0446\u0438\u044f
p590
I588
sV\u0437\u0430\u0432\u0438\u0441\u0435\u0442\u044c
p591
I589
sV\u0431\u0443\u0434\u0443\u0442
p592
I590
sV\u043a\u0443\u0434\u0430
p593
I591
sV\u0448\u0435
p594
I592
sV\u0441\u0442\u043e\u0440\u043e\u043d\u0430
p595
I593
sV\u0442\u043e\u0442
p596
I594
sV\u0430\u043d\u043d\u0430
p597
I595
sV\u043d\u0443\u0436\u043d\u044b\u0439
p598
I596
sV\u0434\u0430\u0447\u043d\u044b\u0439
p599
I597
sV\u043e\u0431\u044f\u0437\u0430\u0442\u0435\u043b\u044c\u043d\u043e
p600
I598
sV\u0443\u0434\u0430\u0447\u043d\u044b\u0439
p601
I599
sV\u043a\u0438\u0440\u0438\u043b\u043b\u043e\u0432\u0441\u043a
p602
I600
sV\u043f\u0430\u0440\u043e\u043b\u044c
p603
I601
sV\u0430\u0441\u0442\u0440\u0430\u0445\u0430\u043d\u044c
p604
I602
sV\u043e\u0431\u0441\u0435\u0440\u0432\u0430\u0442\u043e\u0440\u0438\u044f
p605
I603
sV\u0432\u043e\u0437\u043c\u044b\u0439
p606
I604
sV\u0432\u043e\u0437\u043d\u0438\u043a\u043d\u0443\u0442\u044c
p607
I605
sV\u043f\u0435\u0447\u0430\u0442\u044c
p608
I606
sV\u0434\u0430\u043d\u043d\u044b\u0439
p609
I607
sV\u043f\u0430\u0441\u0441\u043f\u043e\u0440\u0442
p610
I608
sV\u0434\u0430\u043d\u043d\u044b\u0435
p611
I609
sV\u043f\u044b\u0442\u0430\u0442\u044c\u0441\u044f
p612
I610
sV\u0441\u043f\u0440\u043e\u0441\u0438\u0442\u044c
p613
I611
sV\u043f\u0440\u043e\u0432
p614
I612
sV\u043f\u0443\u043d\u043a\u0442
p615
I613
sV\u043f\u043e\u043c\u043e\u0449\u044c
p616
I614
sV\u043f\u043e\u0441\u043e\u0434\u0430\u0434\u043a\u0430
p617
I615
sV\u0443\u0432\u0430\u0436\u0430\u0435\u043c\u044b\u0439
p618
I616
sV\u043e\u0441\u0443\u0449\u0435\u0441\u0442\u0432\u043b\u0435\u043d\u0438\u0435
p619
I617
sV\u043a\u0430\u0441\u0441\u0430
p620
I618
sV\u044d\u043b\u0435\u043a\u0442\u0440\u0438\u0447\u043a\u0430
p621
I619
sV\u043f\u0440\u043e\u0449\u0435\u043d\u0438\u0435
p622
I620
sV\u043f\u0440\u0438\u0431\u044b\u0442\u0438\u0435
p623
I621
sV\u043d\u0430\u043b\u0438\u0447\u0438\u0435
p624
I622
sV\u043f\u043e\u043b\u043e\u0432\u0438\u043d\u0430
p625
I623
sV\u0432\u0435\u0440\u0445\u043d\u0438\u0439
p626
I624
sV\u043e\u0441\u0442\u0430\u0442\u044c\u0441\u044f
p627
I625
sV\u0433\u0434\u0435-\u0442\u043e
p628
I626
sV\u0430\u043d\u043d\u0443\u043b\u0438\u0440\u043e\u0432\u0430\u0442\u044c
p629
I627
sV\u043f\u043e\u0437\u0432\u0430\u0442\u044c
p630
I628
sV\u043e\u0441\u0442\u0430\u043d\u0430\u0432\u043b\u0438\u0432\u0430\u0442\u044c\u0441\u044f
p631
I629
sV\u043f\u0440\u0438\u0445\u043e\u0434\u0438\u0442\u044c
p632
I630
sV\u043f\u0440\u0430\u0432\u0438\u043b\u044c\u043d\u043e
p633
I631
sV\u0446\u0430\u0440\u0438\u0446\u044b\u043d
p634
I632
sV\u0434\u0437\u0435\u0440\u0436\u0438\u043d\u0441\u043a\u0438\u0439
p635
I633
sV\u043f\u043e\u043a\u0430
p636
I634
sV\u0434\u0435\u0448
p637
I635
sV\u0441\u0430\u0434\u0438\u0442\u044c\u0441\u044f
p638
I636
sV\u0441\u043b\u0435\u0434\u043e\u0432\u0430\u0442\u044c
p639
I637
sV\u0442\u0440\u0443\u0434\u043d\u043e\u0441\u0442\u044c
p640
I638
sV\u0440\u0430\u0441\u0441\u043a\u0430\u0437\u0430\u0442\u044c
p641
I639
sV\u043e\u0431\u0440\u0430\u0442\u0438\u0442\u044c\u0441\u044f
p642
I640
sV\u0437\u0430\u044f\u0432\u0438\u0442\u044c
p643
I641
sV\u043d\u0438\u043d\u0430
p644
I642
sV\u043f\u0440\u0438\u0435\u0445
p645
I643
sV\u0442\u0435\u0447\u0435\u043d\u0438\u0435
p646
I644
sV\u0431\u044b\u0432\u0430\u0442\u044c
p647
I645
sV\u043e\u0431\u0440\u0430\u0442\u0438\u0442\u044c
p648
I646
sV\u0441\u0435\u0440\u0433\u0430\u0447\u0435\u043d\u0441\u043a\u0438\u0439
p649
I647
sV\u0431\u043b\u0438\u0436\u043d\u0438\u0439
p650
I648
sV\u0444\u0435\u0432\u0440\u0430\u043b\u044c
p651
I649
sV\u0434\u0430\u0432\u0430\u0442\u044c
p652
I650
sV\u0430\u0434\u0440\u0435\u0441
p653
I651
sV\u043a\u0443\u043f\u0438\u0442\u044c
p654
I652
sV\u0440\u0435\u0433\u0438\u0441\u0442\u0440\u0430\u0446\u0438\u044f
p655
I653
sV\u043d\u043e\u043c\u0435\u0440
p656
I654
sV\u043e\u0431\u0440\u0430\u0449\u0430\u0442\u044c
p657
I655
sV\u0434\u043d
p658
I656
sV\u0442\u044b\u0441\u044f\u0447\u0430
p659
I657
sV\u043e\u0441\u0442\u0430\u043d\u043e\u0432\u043a\u0430
p660
I658
sV\u0442\u043e\u0436\u0435
p661
I659
sV\u043f\u043e\u043b\u044c\u0437\u043e\u0432\u0430\u0442\u044c\u0441\u044f
p662
I660
sV\u0440\u0443\u0441\u043b\u0430\u043d
p663
I661
sV\u043f\u043e\u0437\u0432\u043e\u043d\u0438\u0442\u044c
p664
I662
sV\u0441\u0432
p665
I663
sV\u0441\u043f\u0441\u0438\u0431\u043e
p666
I664
sV\u0432\u0430\u0448
p667
I665
sV\u043d\u0434\u0430
p668
I666
sV\u044d\u043a\u0441\u0442\u0440\u0435\u043d\u043d\u044b\u0439
p669
I667
sV\u0437\u0430\u0433\u0440\u0443\u0436\u0430\u0442\u044c\u0441\u044f
p670
I668
sV\u0440\u0430\u0441\u043f\u0435\u0447\u0430\u0442\u043a\u0430
p671
I669
sV\u043f\u0440\u043e\u0441\u0442\u0438\u0442\u044c
p672
I670
sV\u043f\u0440\u0435\u0434\u0443\u043f\u0440\u0435\u0434\u0438\u0442\u044c
p673
I671
sV\u0443\u0447
p674
I672
sV\u0434\u0435\u043b\u0430\u0442\u044c\u0441\u044f
p675
I673
sV\u0438\u043d\u0442\u0435\u0440\u043d\u0435\u0442
p676
I674
sV\u0433\u043e\u0440\u043e\u0434
p677
I675
sV\u043a\u0440\u0438\u0441\u0442\u0438\u043d\u0430
p678
I676
sV\u0441\u0442\u0430\u0442\u044c
p679
I677
sV\u043f\u0430\u0441\u043f\u043e\u0440\u0442
p680
I678
sV\u0433\u043b\u0430\u0432\u043d\u044b\u0439
p681
I679
sV\u0441\u043e\u0435\u0434\u0438\u043d\u0438\u0442\u044c
p682
I680
sV\u0442\u0438\u043a\u0435\u0442\u0430
p683
I681
sV\u043f\u0440\u043e\u0441\u0438\u0442\u044c
p684
I682
sV\u0447\u0430\u0441
p685
I683
sV\u044d\u0442\u043e\u0442
p686
I684
sV\u043b\u0438\u0447\u043d\u043e\u0441\u0442\u044c
p687
I685
sV\u043a\u043e\u043d\u0441\u0443\u043b\u044c\u0442\u0438\u0440\u043e\u0432\u0430\u0442\u044c
p688
I686
s.